; ModuleID = '52/5709.cpp'
source_filename = "52/5709.cpp"
target datalayout = "e-m:e-p270:32:32-p271:32:32-p272:64:64-i64:64-f80:128-n8:16:32:64-S128"
target triple = "x86_64-pc-linux-gnu"

%"class.std::ios_base::Init" = type { i8 }
%"class.std::basic_istream" = type { i32 (...)**, i64, %"class.std::basic_ios" }
%"class.std::basic_ios" = type { %"class.std::ios_base", %"class.std::basic_ostream"*, i8, i8, %"class.std::basic_streambuf"*, %"class.std::ctype"*, %"class.std::num_put"*, %"class.std::num_get"* }
%"class.std::ios_base" = type { i32 (...)**, i64, i64, i32, i32, i32, %"struct.std::ios_base::_Callback_list"*, %"struct.std::ios_base::_Words", [8 x %"struct.std::ios_base::_Words"], i32, %"struct.std::ios_base::_Words"*, %"class.std::locale" }
%"struct.std::ios_base::_Callback_list" = type { %"struct.std::ios_base::_Callback_list"*, void (i32, %"class.std::ios_base"*, i32)*, i32, i32 }
%"struct.std::ios_base::_Words" = type { i8*, i64 }
%"class.std::locale" = type { %"class.std::locale::_Impl"* }
%"class.std::locale::_Impl" = type { i32, %"class.std::locale::facet"**, i64, %"class.std::locale::facet"**, i8** }
%"class.std::locale::facet" = type <{ i32 (...)**, i32, [4 x i8] }>
%"class.std::basic_ostream" = type { i32 (...)**, %"class.std::basic_ios" }
%"class.std::basic_streambuf" = type { i32 (...)**, i8*, i8*, i8*, i8*, i8*, i8*, %"class.std::locale" }
%"class.std::ctype" = type <{ %"class.std::locale::facet.base", [4 x i8], %struct.__locale_struct*, i8, [7 x i8], i32*, i32*, i16*, i8, [256 x i8], [256 x i8], i8, [6 x i8] }>
%"class.std::locale::facet.base" = type <{ i32 (...)**, i32 }>
%struct.__locale_struct = type { [13 x %struct.__locale_data*], i16*, i32*, i32*, [13 x i8*] }
%struct.__locale_data = type opaque
%"class.std::num_put" = type { %"class.std::locale::facet.base", [4 x i8] }
%"class.std::num_get" = type { %"class.std::locale::facet.base", [4 x i8] }

@_ZStL8__ioinit = internal global %"class.std::ios_base::Init" zeroinitializer, align 1
@__dso_handle = external hidden global i8
@_ZSt3cin = external dso_local global %"class.std::basic_istream", align 8
@_ZSt4cout = external dso_local global %"class.std::basic_ostream", align 8
@.str = private unnamed_addr constant [2 x i8] c" \00", align 1
@llvm.global_ctors = appending global [1 x { i32, void ()*, i8* }] [{ i32, void ()*, i8* } { i32 65535, void ()* @_GLOBAL__sub_I_5709.cpp, i8* null }]

; Function Attrs: noinline uwtable
define internal void @__cxx_global_var_init() #0 section ".text.startup" {
  call void @_ZNSt8ios_base4InitC1Ev(%"class.std::ios_base::Init"* @_ZStL8__ioinit)
  %1 = call i32 @__cxa_atexit(void (i8*)* bitcast (void (%"class.std::ios_base::Init"*)* @_ZNSt8ios_base4InitD1Ev to void (i8*)*), i8* getelementptr inbounds (%"class.std::ios_base::Init", %"class.std::ios_base::Init"* @_ZStL8__ioinit, i32 0, i32 0), i8* @__dso_handle) #3
  ret void
}

declare dso_local void @_ZNSt8ios_base4InitC1Ev(%"class.std::ios_base::Init"*) unnamed_addr #1

; Function Attrs: nounwind
declare dso_local void @_ZNSt8ios_base4InitD1Ev(%"class.std::ios_base::Init"*) unnamed_addr #2

; Function Attrs: nounwind
declare dso_local i32 @__cxa_atexit(void (i8*)*, i8*, i8*) #3

; Function Attrs: noinline norecurse uwtable
define dso_local i32 @main() #4 {
  %1 = alloca i32, align 4
  %2 = alloca i32, align 4
  %3 = alloca i32, align 4
  %4 = alloca [100 x i32], align 16
  %5 = alloca i32, align 4
  %6 = alloca i32, align 4
  store i32 0, i32* %1, align 4
  %7 = call dereferenceable(280) %"class.std::basic_istream"* @_ZNSirsERi(%"class.std::basic_istream"* @_ZSt3cin, i32* dereferenceable(4) %2)
  %8 = call dereferenceable(280) %"class.std::basic_istream"* @_ZNSirsERi(%"class.std::basic_istream"* %7, i32* dereferenceable(4) %3)
  store i32 0, i32* %5, align 4
  br label %9

9:                                                ; preds = %19, %0
  %10 = load i32, i32* %5, align 4
  %11 = load i32, i32* %2, align 4
  %12 = icmp slt i32 %10, %11
  br i1 %12, label %13, label %22

13:                                               ; preds = %9
  %14 = getelementptr inbounds [100 x i32], [100 x i32]* %4, i64 0, i64 0
  %15 = load i32, i32* %5, align 4
  %16 = sext i32 %15 to i64
  %17 = getelementptr inbounds i32, i32* %14, i64 %16
  %18 = call dereferenceable(280) %"class.std::basic_istream"* @_ZNSirsERi(%"class.std::basic_istream"* @_ZSt3cin, i32* dereferenceable(4) %17)
  br label %19

19:                                               ; preds = %13
  %20 = load i32, i32* %5, align 4
  %21 = add nsw i32 %20, 1
  store i32 %21, i32* %5, align 4
  br label %9

22:                                               ; preds = %9
  br label %23

23:                                               ; preds = %52, %22
  %24 = load i32, i32* %3, align 4
  %25 = icmp sgt i32 %24, 0
  br i1 %25, label %26, label %57

26:                                               ; preds = %23
  %27 = getelementptr inbounds [100 x i32], [100 x i32]* %4, i64 0, i64 0
  %28 = load i32, i32* %2, align 4
  %29 = sext i32 %28 to i64
  %30 = getelementptr inbounds i32, i32* %27, i64 %29
  %31 = getelementptr inbounds i32, i32* %30, i64 -1
  %32 = load i32, i32* %31, align 4
  store i32 %32, i32* %6, align 4
  %33 = load i32, i32* %2, align 4
  %34 = sub nsw i32 %33, 1
  store i32 %34, i32* %5, align 4
  br label %35

35:                                               ; preds = %49, %26
  %36 = load i32, i32* %5, align 4
  %37 = icmp sgt i32 %36, 0
  br i1 %37, label %38, label %52

38:                                               ; preds = %35
  %39 = getelementptr inbounds [100 x i32], [100 x i32]* %4, i64 0, i64 0
  %40 = load i32, i32* %5, align 4
  %41 = sext i32 %40 to i64
  %42 = getelementptr inbounds i32, i32* %39, i64 %41
  %43 = getelementptr inbounds i32, i32* %42, i64 -1
  %44 = load i32, i32* %43, align 4
  %45 = getelementptr inbounds [100 x i32], [100 x i32]* %4, i64 0, i64 0
  %46 = load i32, i32* %5, align 4
  %47 = sext i32 %46 to i64
  %48 = getelementptr inbounds i32, i32* %45, i64 %47
  store i32 %44, i32* %48, align 4
  br label %49

49:                                               ; preds = %38
  %50 = load i32, i32* %5, align 4
  %51 = add nsw i32 %50, -1
  store i32 %51, i32* %5, align 4
  br label %35

52:                                               ; preds = %35
  %53 = load i32, i32* %6, align 4
  %54 = getelementptr inbounds [100 x i32], [100 x i32]* %4, i64 0, i64 0
  store i32 %53, i32* %54, align 16
  %55 = load i32, i32* %3, align 4
  %56 = add nsw i32 %55, -1
  store i32 %56, i32* %3, align 4
  br label %23

57:                                               ; preds = %23
  store i32 0, i32* %5, align 4
  br label %58

58:                                               ; preds = %71, %57
  %59 = load i32, i32* %5, align 4
  %60 = load i32, i32* %2, align 4
  %61 = sub nsw i32 %60, 1
  %62 = icmp slt i32 %59, %61
  br i1 %62, label %63, label %74

63:                                               ; preds = %58
  %64 = getelementptr inbounds [100 x i32], [100 x i32]* %4, i64 0, i64 0
  %65 = load i32, i32* %5, align 4
  %66 = sext i32 %65 to i64
  %67 = getelementptr inbounds i32, i32* %64, i64 %66
  %68 = load i32, i32* %67, align 4
  %69 = call dereferenceable(272) %"class.std::basic_ostream"* @_ZNSolsEi(%"class.std::basic_ostream"* @_ZSt4cout, i32 %68)
  %70 = call dereferenceable(272) %"class.std::basic_ostream"* @_ZStlsISt11char_traitsIcEERSt13basic_ostreamIcT_ES5_PKc(%"class.std::basic_ostream"* dereferenceable(272) %69, i8* getelementptr inbounds ([2 x i8], [2 x i8]* @.str, i64 0, i64 0))
  br label %71

71:                                               ; preds = %63
  %72 = load i32, i32* %5, align 4
  %73 = add nsw i32 %72, 1
  store i32 %73, i32* %5, align 4
  br label %58

74:                                               ; preds = %58
  %75 = getelementptr inbounds [100 x i32], [100 x i32]* %4, i64 0, i64 0
  %76 = load i32, i32* %2, align 4
  %77 = sext i32 %76 to i64
  %78 = getelementptr inbounds i32, i32* %75, i64 %77
  %79 = getelementptr inbounds i32, i32* %78, i64 -1
  %80 = load i32, i32* %79, align 4
  %81 = call dereferenceable(272) %"class.std::basic_ostream"* @_ZNSolsEi(%"class.std::basic_ostream"* @_ZSt4cout, i32 %80)
  %82 = load i32, i32* %1, align 4
  ret i32 %82
}

declare dso_local dereferenceable(280) %"class.std::basic_istream"* @_ZNSirsERi(%"class.std::basic_istream"*, i32* dereferenceable(4)) #1

declare dso_local dereferenceable(272) %"class.std::basic_ostream"* @_ZStlsISt11char_traitsIcEERSt13basic_ostreamIcT_ES5_PKc(%"class.std::basic_ostream"* dereferenceable(272), i8*) #1

declare dso_local dereferenceable(272) %"class.std::basic_ostream"* @_ZNSolsEi(%"class.std::basic_ostream"*, i32) #1

; Function Attrs: noinline uwtable
define internal void @_GLOBAL__sub_I_5709.cpp() #0 section ".text.startup" {
  call void @__cxx_global_var_init()
  ret void
}


!llvm.module.flags = !{!0}
!llvm.ident = !{!1}

!0 = !{i32 1, !"wchar_size", i32 4}
!1 = !{!"clang version 10.0.0-4ubuntu1 "}
